; Function Attrs: nofree norecurse nosync nounwind memory(argmem: readwrite) uwtable
define internal void @midequalizer16(ptr noundef readonly captures(none) %0, ptr noundef readonly captures(none) %1, ptr noundef writeonly captures(none) %2, i64 noundef %3, i64 noundef %4, i64 noundef %5, i32 noundef %6, i32 noundef %7, i32 noundef %8, i32 noundef %9, ptr noundef captures(none) %10, ptr noundef captures(none) %11, ptr noundef captures(none) %12, i64 noundef %13) #4 {
  %15 = sdiv i64 %3, 2
  %16 = shl i64 %13, 2
  tail call void @llvm.memset.p0.i64(ptr align 4 %10, i8 0, i64 %16, i1 false)
  %17 = icmp sgt i32 %7, 0
  %18 = icmp sgt i32 %6, 0
  %or.cond.i = and i1 %18, %17
  br i1 %or.cond.i, label %.preheader29.us.preheader.i, label %.preheader.i

.preheader29.us.preheader.i:                      ; preds = %14
  %wide.trip.count.i = zext nneg i32 %6 to i64
  br label %.preheader29.us.i

.preheader29.us.i:                                ; preds = %._crit_edge.us.i, %.preheader29.us.preheader.i
  %.02532.us.i = phi i32 [ %27, %._crit_edge.us.i ], [ 0, %.preheader29.us.preheader.i ]
  %.02631.us.i = phi ptr [ %26, %._crit_edge.us.i ], [ %0, %.preheader29.us.preheader.i ]
  br label %19

19:                                               ; preds = %19, %.preheader29.us.i
  %indvars.iv.i = phi i64 [ 0, %.preheader29.us.i ], [ %indvars.iv.next.i, %19 ]
  %20 = getelementptr inbounds nuw i16, ptr %.02631.us.i, i64 %indvars.iv.i
  %21 = load i16, ptr %20, align 2, !tbaa !60
  %22 = zext i16 %21 to i64
  %23 = getelementptr inbounds nuw float, ptr %10, i64 %22
  %24 = load float, ptr %23, align 4, !tbaa !50
  %25 = fadd nsz float %24, 1.000000e+00
  store float %25, ptr %23, align 4, !tbaa !50
  %indvars.iv.next.i = add nuw nsw i64 %indvars.iv.i, 1
  %exitcond.not.i = icmp eq i64 %indvars.iv.next.i, %wide.trip.count.i
  br i1 %exitcond.not.i, label %._crit_edge.us.i, label %19, !llvm.loop !62

._crit_edge.us.i:                                 ; preds = %19
  %26 = getelementptr inbounds i16, ptr %.02631.us.i, i64 %15
  %27 = add nuw nsw i32 %.02532.us.i, 1
  %exitcond37.not.i = icmp eq i32 %27, %7
  br i1 %exitcond37.not.i, label %.preheader.i, label %.preheader29.us.i, !llvm.loop !63

.preheader.i:                                     ; preds = %._crit_edge.us.i, %14
  %28 = add i64 %13, -1
  %.not.i = icmp eq i64 %28, 0
  %.pre42.i = uitofp i64 %13 to float
  br i1 %.not.i, label %compute_histogram16.exit, label %.lr.ph.i

.lr.ph.i:                                         ; preds = %.preheader.i
  %.pre.i = load float, ptr %10, align 4, !tbaa !50
  br label %29

29:                                               ; preds = %29, %.lr.ph.i
  %30 = phi float [ %.pre.i, %.lr.ph.i ], [ %34, %29 ]
  %indvars.iv38.i = phi i64 [ 0, %.lr.ph.i ], [ %indvars.iv.next39.i, %29 ]
  %31 = getelementptr inbounds nuw float, ptr %10, i64 %indvars.iv38.i
  %indvars.iv.next39.i = add nuw nsw i64 %indvars.iv38.i, 1
  %32 = getelementptr inbounds nuw float, ptr %10, i64 %indvars.iv.next39.i
  %33 = load float, ptr %32, align 4, !tbaa !50
  %34 = fadd nsz float %30, %33
  store float %34, ptr %32, align 4, !tbaa !50
  %35 = fdiv nsz float %30, %.pre42.i
  store float %35, ptr %31, align 4, !tbaa !50
  %exitcond41.not.i = icmp eq i64 %indvars.iv.next39.i, %28
  br i1 %exitcond41.not.i, label %compute_histogram16.exit, label %29, !llvm.loop !64

compute_histogram16.exit:                         ; preds = %29, %.preheader.i
  %36 = getelementptr inbounds nuw float, ptr %10, i64 %28
  %37 = load float, ptr %36, align 4, !tbaa !50
  %38 = fdiv nsz float %37, %.pre42.i
  store float %38, ptr %36, align 4, !tbaa !50
  %39 = sdiv i64 %4, 2
  tail call void @llvm.memset.p0.i64(ptr align 4 %11, i8 0, i64 %16, i1 false)
  %40 = icmp sgt i32 %9, 0
  %41 = icmp sgt i32 %8, 0
  %or.cond.i35 = and i1 %41, %40
  br i1 %or.cond.i35, label %.preheader29.us.preheader.i44, label %.preheader.i36

.preheader29.us.preheader.i44:                    ; preds = %compute_histogram16.exit
  %wide.trip.count.i45 = zext nneg i32 %8 to i64
  br label %.preheader29.us.i46

.preheader29.us.i46:                              ; preds = %._crit_edge.us.i52, %.preheader29.us.preheader.i44
  %.02532.us.i47 = phi i32 [ %50, %._crit_edge.us.i52 ], [ 0, %.preheader29.us.preheader.i44 ]
  %.02631.us.i48 = phi ptr [ %49, %._crit_edge.us.i52 ], [ %1, %.preheader29.us.preheader.i44 ]
  br label %42

42:                                               ; preds = %42, %.preheader29.us.i46
  %indvars.iv.i49 = phi i64 [ 0, %.preheader29.us.i46 ], [ %indvars.iv.next.i50, %42 ]
  %43 = getelementptr inbounds nuw i16, ptr %.02631.us.i48, i64 %indvars.iv.i49
  %44 = load i16, ptr %43, align 2, !tbaa !60
  %45 = zext i16 %44 to i64
  %46 = getelementptr inbounds nuw float, ptr %11, i64 %45
  %47 = load float, ptr %46, align 4, !tbaa !50
  %48 = fadd nsz float %47, 1.000000e+00
  store float %48, ptr %46, align 4, !tbaa !50
  %indvars.iv.next.i50 = add nuw nsw i64 %indvars.iv.i49, 1
  %exitcond.not.i51 = icmp eq i64 %indvars.iv.next.i50, %wide.trip.count.i45
  br i1 %exitcond.not.i51, label %._crit_edge.us.i52, label %42, !llvm.loop !62

._crit_edge.us.i52:                               ; preds = %42
  %49 = getelementptr inbounds i16, ptr %.02631.us.i48, i64 %39
  %50 = add nuw nsw i32 %.02532.us.i47, 1
  %exitcond37.not.i53 = icmp eq i32 %50, %9
  br i1 %exitcond37.not.i53, label %.preheader.i36, label %.preheader29.us.i46, !llvm.loop !63

.preheader.i36:                                   ; preds = %._crit_edge.us.i52, %compute_histogram16.exit
  br i1 %.not.i, label %compute_histogram16.exit54.thread, label %.lr.ph.i39

compute_histogram16.exit54.thread:                ; preds = %.preheader.i36
  %51 = getelementptr inbounds nuw float, ptr %11, i64 %28
  %52 = load float, ptr %51, align 4, !tbaa !50
  %53 = fdiv nsz float %52, %.pre42.i
  store float %53, ptr %51, align 4, !tbaa !50
  br label %.preheader.i56.preheader

.lr.ph.i39:                                       ; preds = %.preheader.i36
  %.pre.i40 = load float, ptr %11, align 4, !tbaa !50
  br label %54

54:                                               ; preds = %54, %.lr.ph.i39
  %55 = phi float [ %.pre.i40, %.lr.ph.i39 ], [ %59, %54 ]
  %indvars.iv38.i41 = phi i64 [ 0, %.lr.ph.i39 ], [ %indvars.iv.next39.i42, %54 ]
  %56 = getelementptr inbounds nuw float, ptr %11, i64 %indvars.iv38.i41
  %indvars.iv.next39.i42 = add nuw nsw i64 %indvars.iv38.i41, 1
  %57 = getelementptr inbounds nuw float, ptr %11, i64 %indvars.iv.next39.i42
  %58 = load float, ptr %57, align 4, !tbaa !50
  %59 = fadd nsz float %55, %58
  store float %59, ptr %57, align 4, !tbaa !50
  %60 = fdiv nsz float %55, %.pre42.i
  store float %60, ptr %56, align 4, !tbaa !50
  %exitcond41.not.i43 = icmp eq i64 %indvars.iv.next39.i42, %28
  br i1 %exitcond41.not.i43, label %compute_histogram16.exit54, label %54, !llvm.loop !64

compute_histogram16.exit54:                       ; preds = %54
  %61 = getelementptr inbounds nuw float, ptr %11, i64 %28
  %62 = load float, ptr %61, align 4, !tbaa !50
  %63 = fdiv nsz float %62, %.pre42.i
  store float %63, ptr %61, align 4, !tbaa !50
  %.not.i55 = icmp eq i64 %13, 0
  br i1 %.not.i55, label %compute_contrast_change.exit, label %.preheader.i56.preheader

.preheader.i56.preheader:                         ; preds = %compute_histogram16.exit54.thread, %compute_histogram16.exit54
  br label %.preheader.i56

.preheader.i56:                                   ; preds = %.preheader.i56.preheader, %.critedge.i
  %indvars.iv20.i = phi i64 [ %indvars.iv.next21.i, %.critedge.i ], [ 0, %.preheader.i56.preheader ]
  %64 = getelementptr inbounds nuw float, ptr %10, i64 %indvars.iv20.i
  %65 = load float, ptr %64, align 4, !tbaa !50
  br label %66

66:                                               ; preds = %70, %.preheader.i56
  %indvars.iv.i57 = phi i64 [ 0, %.preheader.i56 ], [ %indvars.iv.next.i58, %70 ]
  %67 = getelementptr inbounds nuw float, ptr %11, i64 %indvars.iv.i57
  %68 = load float, ptr %67, align 4, !tbaa !50
  %69 = fcmp nsz olt float %68, %65
  br i1 %69, label %70, label %.critedge.i

70:                                               ; preds = %66
  %indvars.iv.next.i58 = add nuw i64 %indvars.iv.i57, 1
  %exitcond.not.i59 = icmp eq i64 %indvars.iv.next.i58, %13
  br i1 %exitcond.not.i59, label %.critedge.i, label %66, !llvm.loop !56

.critedge.i:                                      ; preds = %70, %66
  %.0.lcssa.in.i = phi i64 [ %13, %70 ], [ %indvars.iv.i57, %66 ]
  %.0.lcssa.i = trunc i64 %.0.lcssa.in.i to i32
  %71 = trunc nuw nsw i64 %indvars.iv20.i to i32
  %72 = add nuw nsw i32 %.0.lcssa.i, %71
  %73 = lshr i32 %72, 1
  %74 = getelementptr inbounds nuw i32, ptr %12, i64 %indvars.iv20.i
  store i32 %73, ptr %74, align 4, !tbaa !40
  %indvars.iv.next21.i = add nuw nsw i64 %indvars.iv20.i, 1
  %exitcond23.not.i = icmp eq i64 %indvars.iv.next21.i, %13
  br i1 %exitcond23.not.i, label %compute_contrast_change.exit, label %.preheader.i56, !llvm.loop !57

compute_contrast_change.exit:                     ; preds = %.critedge.i, %compute_histogram16.exit54
  br i1 %17, label %.preheader.lr.ph, label %._crit_edge64

.preheader.lr.ph:                                 ; preds = %compute_contrast_change.exit
  %75 = sdiv i64 %5, 2
  br i1 %18, label %.preheader.us.preheader, label %._crit_edge64

.preheader.us.preheader:                          ; preds = %.preheader.lr.ph
  %wide.trip.count = zext nneg i32 %6 to i64
  br label %.preheader.us

.preheader.us:                                    ; preds = %.preheader.us.preheader, %._crit_edge.us
  %.063.us = phi i32 [ %86, %._crit_edge.us ], [ 0, %.preheader.us.preheader ]
  %.03362.us = phi ptr [ %84, %._crit_edge.us ], [ %2, %.preheader.us.preheader ]
  %.03461.us = phi ptr [ %85, %._crit_edge.us ], [ %0, %.preheader.us.preheader ]
  br label %76

76:                                               ; preds = %.preheader.us, %76
  %indvars.iv = phi i64 [ 0, %.preheader.us ], [ %indvars.iv.next, %76 ]
  %77 = getelementptr inbounds nuw i16, ptr %.03461.us, i64 %indvars.iv
  %78 = load i16, ptr %77, align 2, !tbaa !60
  %79 = zext i16 %78 to i64
  %80 = getelementptr inbounds nuw i32, ptr %12, i64 %79
  %81 = load i32, ptr %80, align 4, !tbaa !40
  %82 = trunc i32 %81 to i16
  %83 = getelementptr inbounds nuw i16, ptr %.03362.us, i64 %indvars.iv
  store i16 %82, ptr %83, align 2, !tbaa !60
  %indvars.iv.next = add nuw nsw i64 %indvars.iv, 1
  %exitcond.not = icmp eq i64 %indvars.iv.next, %wide.trip.count
  br i1 %exitcond.not, label %._crit_edge.us, label %76, !llvm.loop !65

._crit_edge.us:                                   ; preds = %76
  %84 = getelementptr inbounds i16, ptr %.03362.us, i64 %75
  %85 = getelementptr inbounds i16, ptr %.03461.us, i64 %15
  %86 = add nuw nsw i32 %.063.us, 1
  %exitcond67.not = icmp eq i32 %86, %7
  br i1 %exitcond67.not, label %._crit_edge64, label %.preheader.us, !llvm.loop !66

._crit_edge64:                                    ; preds = %._crit_edge.us, %.preheader.lr.ph, %compute_contrast_change.exit
  ret void
}